target datalayout = "e-m:e-p270:32:32-p271:32:32-p272:64:64-i64:64-i128:128-f80:128-n8:16:32:64-S128"
target triple = "x86_64-unknown-linux-gnu"

%"class.icu_75::SortKeyByteSink" = type <{ %"class.icu_75::ByteSink", ptr, i32, i32, i32, [4 x i8] }>
%"class.icu_75::ByteSink" = type { ptr }
%"class.icu_75::RuleBasedCollator" = type <{ %"class.icu_75::Collator", ptr, ptr, ptr, ptr, %"class.icu_75::Locale", i32, i8, [3 x i8] }>
%"class.icu_75::Collator" = type { %"class.icu_75::UObject" }
%"class.icu_75::UObject" = type { ptr }
%"class.icu_75::Locale" = type <{ %"class.icu_75::UObject", [12 x i8], [6 x i8], [4 x i8], [2 x i8], i32, [4 x i8], ptr, [157 x i8], [3 x i8], ptr, i8, [7 x i8] }>
%"class.icu_75::UnicodeString" = type { %"class.icu_75::Replaceable", %"union.icu_75::UnicodeString::StackBufferOrFields" }
%"class.icu_75::Replaceable" = type { %"class.icu_75::UObject" }
%"union.icu_75::UnicodeString::StackBufferOrFields" = type { %struct.anon.1, [32 x i8] }
%struct.anon.1 = type { i16, i32, i32, ptr }
%"struct.icu_75::CollationData" = type <{ ptr, ptr, ptr, ptr, ptr, ptr, ptr, i32, i32, i32, i32, ptr, ptr, ptr, i32, i32, ptr, ptr, i32, [4 x i8], ptr, i32, [4 x i8] }>
%struct.anon.0 = type { i16, [27 x i16] }

@_ZTVN6icu_757UObjectE = external unnamed_addr constant { [5 x ptr] }, align 8
@_ZTVN6icu_7513UnicodeStringE = external unnamed_addr constant { [13 x ptr] }, align 8
@_ZTVN6icu_7511ReplaceableE = external unnamed_addr constant { [13 x ptr] }, align 8

; Function Attrs: mustprogress nounwind uwtable
define linkonce_odr void @_ZN6icu_757UObjectC2Ev(ptr noundef nonnull align 8 dereferenceable(8) %this) unnamed_addr #0 comdat align 2 {
entry:
  %this.addr = alloca ptr, align 8
  store ptr %this, ptr %this.addr, align 8
  %this1 = load ptr, ptr %this.addr, align 8
  store ptr getelementptr inbounds ({ [5 x ptr] }, ptr @_ZTVN6icu_757UObjectE, i32 0, i32 0, i32 2), ptr %this1, align 8
  ret void
}

; Function Attrs: mustprogress nounwind uwtable
define linkonce_odr noundef i32 @_ZNK6icu_7513UnicodeString14getShortLengthEv(ptr noundef nonnull align 8 dereferenceable(64) %this) #0 comdat align 2 {
entry:
  %this.addr = alloca ptr, align 8
  store ptr %this, ptr %this.addr, align 8
  %this1 = load ptr, ptr %this.addr, align 8
  %fUnion = getelementptr inbounds %"class.icu_75::UnicodeString", ptr %this1, i32 0, i32 1
  %fLengthAndFlags = getelementptr inbounds %struct.anon.1, ptr %fUnion, i32 0, i32 0
  %0 = load i16, ptr %fLengthAndFlags, align 8
  %conv = sext i16 %0 to i32
  %shr = ashr i32 %conv, 5
  ret i32 %shr
}

; Function Attrs: mustprogress nounwind uwtable
define linkonce_odr noundef signext i8 @_ZNK6icu_7513UnicodeString14hasShortLengthEv(ptr noundef nonnull align 8 dereferenceable(64) %this) #0 comdat align 2 {
entry:
  %this.addr = alloca ptr, align 8
  store ptr %this, ptr %this.addr, align 8
  %this1 = load ptr, ptr %this.addr, align 8
  %fUnion = getelementptr inbounds %"class.icu_75::UnicodeString", ptr %this1, i32 0, i32 1
  %fLengthAndFlags = getelementptr inbounds %struct.anon.1, ptr %fUnion, i32 0, i32 0
  %0 = load i16, ptr %fLengthAndFlags, align 8
  %conv = sext i16 %0 to i32
  %cmp = icmp sge i32 %conv, 0
  %conv2 = zext i1 %cmp to i8
  ret i8 %conv2
}

; Function Attrs: mustprogress nounwind uwtable
define linkonce_odr void @_ZN6icu_7511ReplaceableC2Ev(ptr noundef nonnull align 8 dereferenceable(8) %this) unnamed_addr #0 comdat align 2 {
entry:
  %this.addr = alloca ptr, align 8
  store ptr %this, ptr %this.addr, align 8
  %this1 = load ptr, ptr %this.addr, align 8
  call void @_ZN6icu_757UObjectC2Ev(ptr noundef nonnull align 8 dereferenceable(8) %this1) #10
  store ptr getelementptr inbounds ({ [13 x ptr] }, ptr @_ZTVN6icu_7511ReplaceableE, i32 0, i32 0, i32 2), ptr %this1, align 8
  ret void
}

; Function Attrs: mustprogress uwtable
define linkonce_odr noundef i32 @_ZNK6icu_7513UnicodeString6lengthEv(ptr noundef nonnull align 8 dereferenceable(64) %this) #1 comdat align 2 {
entry:
  %this.addr = alloca ptr, align 8
  store ptr %this, ptr %this.addr, align 8
  %this1 = load ptr, ptr %this.addr, align 8
  %call = call noundef signext i8 @_ZNK6icu_7513UnicodeString14hasShortLengthEv(ptr noundef nonnull align 8 dereferenceable(64) %this1)
  %tobool = icmp ne i8 %call, 0
  br i1 %tobool, label %cond.true, label %cond.false

cond.true:                                        ; preds = %entry
  %call2 = call noundef i32 @_ZNK6icu_7513UnicodeString14getShortLengthEv(ptr noundef nonnull align 8 dereferenceable(64) %this1)
  br label %cond.end

cond.false:                                       ; preds = %entry
  %fUnion = getelementptr inbounds %"class.icu_75::UnicodeString", ptr %this1, i32 0, i32 1
  %fLength = getelementptr inbounds %struct.anon.1, ptr %fUnion, i32 0, i32 1
  %0 = load i32, ptr %fLength, align 4
  br label %cond.end

cond.end:                                         ; preds = %cond.false, %cond.true
  %cond = phi i32 [ %call2, %cond.true ], [ %0, %cond.false ]
  ret i32 %cond
}

; Function Attrs: mustprogress nounwind uwtable
define linkonce_odr noundef ptr @_ZNK6icu_7513UnicodeString9getBufferEv(ptr noundef nonnull align 8 dereferenceable(64) %this) #0 comdat align 2 {
entry:
  %retval = alloca ptr, align 8
  %this.addr = alloca ptr, align 8
  store ptr %this, ptr %this.addr, align 8
  %this1 = load ptr, ptr %this.addr, align 8
  %fUnion = getelementptr inbounds %"class.icu_75::UnicodeString", ptr %this1, i32 0, i32 1
  %fLengthAndFlags = getelementptr inbounds %struct.anon.1, ptr %fUnion, i32 0, i32 0
  %0 = load i16, ptr %fLengthAndFlags, align 8
  %conv = sext i16 %0 to i32
  %and = and i32 %conv, 17
  %tobool = icmp ne i32 %and, 0
  br i1 %tobool, label %if.then, label %if.else

if.then:                                          ; preds = %entry
  store ptr null, ptr %retval, align 8
  br label %return

if.else:                                          ; preds = %entry
  %fUnion2 = getelementptr inbounds %"class.icu_75::UnicodeString", ptr %this1, i32 0, i32 1
  %fLengthAndFlags3 = getelementptr inbounds %struct.anon.1, ptr %fUnion2, i32 0, i32 0
  %1 = load i16, ptr %fLengthAndFlags3, align 8
  %conv4 = sext i16 %1 to i32
  %and5 = and i32 %conv4, 2
  %tobool6 = icmp ne i32 %and5, 0
  br i1 %tobool6, label %if.then7, label %if.else9

if.then7:                                         ; preds = %if.else
  %fUnion8 = getelementptr inbounds %"class.icu_75::UnicodeString", ptr %this1, i32 0, i32 1
  %fBuffer = getelementptr inbounds %struct.anon.0, ptr %fUnion8, i32 0, i32 1
  %arraydecay = getelementptr inbounds [27 x i16], ptr %fBuffer, i64 0, i64 0
  store ptr %arraydecay, ptr %retval, align 8
  br label %return

if.else9:                                         ; preds = %if.else
  %fUnion10 = getelementptr inbounds %"class.icu_75::UnicodeString", ptr %this1, i32 0, i32 1
  %fArray = getelementptr inbounds %struct.anon.1, ptr %fUnion10, i32 0, i32 3
  %2 = load ptr, ptr %fArray, align 8
  store ptr %2, ptr %retval, align 8
  br label %return

return:                                           ; preds = %if.else9, %if.then7, %if.then
  %3 = load ptr, ptr %retval, align 8
  ret ptr %3
}

; Function Attrs: mustprogress uwtable
define linkonce_odr void @_ZN6icu_7513UnicodeStringC2Ev(ptr noundef nonnull align 8 dereferenceable(64) %this) unnamed_addr #1 comdat align 2 {
entry:
  %this.addr = alloca ptr, align 8
  store ptr %this, ptr %this.addr, align 8
  %this1 = load ptr, ptr %this.addr, align 8
  call void @_ZN6icu_7511ReplaceableC2Ev(ptr noundef nonnull align 8 dereferenceable(8) %this1)
  store ptr getelementptr inbounds ({ [13 x ptr] }, ptr @_ZTVN6icu_7513UnicodeStringE, i32 0, i32 0, i32 2), ptr %this1, align 8
  %fUnion2 = getelementptr inbounds %"class.icu_75::UnicodeString", ptr %this1, i32 0, i32 1
  %fLengthAndFlags = getelementptr inbounds %struct.anon.0, ptr %fUnion2, i32 0, i32 0
  store i16 2, ptr %fLengthAndFlags, align 8
  ret void
}

; Function Attrs: mustprogress uwtable
define linkonce_odr void @_ZN6icu_7515SortKeyByteSink6AppendEj(ptr noundef nonnull align 8 dereferenceable(28) %this, i32 noundef %b) #1 comdat align 2 {
entry:
  %this.addr = alloca ptr, align 8
  %b.addr = alloca i32, align 4
  store ptr %this, ptr %this.addr, align 8
  store i32 %b, ptr %b.addr, align 4
  %this1 = load ptr, ptr %this.addr, align 8
  %ignore_ = getelementptr inbounds %"class.icu_75::SortKeyByteSink", ptr %this1, i32 0, i32 4
  %0 = load i32, ptr %ignore_, align 8
  %cmp = icmp sgt i32 %0, 0
  br i1 %cmp, label %if.then, label %if.else

if.then:                                          ; preds = %entry
  %ignore_2 = getelementptr inbounds %"class.icu_75::SortKeyByteSink", ptr %this1, i32 0, i32 4
  %1 = load i32, ptr %ignore_2, align 8
  %dec = add nsw i32 %1, -1
  store i32 %dec, ptr %ignore_2, align 8
  br label %if.end8

if.else:                                          ; preds = %entry
  %appended_ = getelementptr inbounds %"class.icu_75::SortKeyByteSink", ptr %this1, i32 0, i32 3
  %2 = load i32, ptr %appended_, align 4
  %capacity_ = getelementptr inbounds %"class.icu_75::SortKeyByteSink", ptr %this1, i32 0, i32 2
  %3 = load i32, ptr %capacity_, align 8
  %cmp3 = icmp slt i32 %2, %3
  br i1 %cmp3, label %if.then5, label %lor.lhs.false

lor.lhs.false:                                    ; preds = %if.else
  %appended_4 = getelementptr inbounds %"class.icu_75::SortKeyByteSink", ptr %this1, i32 0, i32 3
  %4 = load i32, ptr %appended_4, align 4
  %vtable = load ptr, ptr %this1, align 8
  %vfn = getelementptr inbounds ptr, ptr %vtable, i64 6
  %5 = load ptr, ptr %vfn, align 8
  %call = call noundef signext i8 %5(ptr noundef nonnull align 8 dereferenceable(28) %this1, i32 noundef 1, i32 noundef %4)
  %tobool = icmp ne i8 %call, 0
  br i1 %tobool, label %if.then5, label %if.end

if.then5:                                         ; preds = %lor.lhs.false, %if.else
  %6 = load i32, ptr %b.addr, align 4
  %conv = trunc i32 %6 to i8
  %buffer_ = getelementptr inbounds %"class.icu_75::SortKeyByteSink", ptr %this1, i32 0, i32 1
  %7 = load ptr, ptr %buffer_, align 8
  %appended_6 = getelementptr inbounds %"class.icu_75::SortKeyByteSink", ptr %this1, i32 0, i32 3
  %8 = load i32, ptr %appended_6, align 4
  %idxprom = sext i32 %8 to i64
  %arrayidx = getelementptr inbounds i8, ptr %7, i64 %idxprom
  store i8 %conv, ptr %arrayidx, align 1
  br label %if.end

if.end:                                           ; preds = %if.then5, %lor.lhs.false
  %appended_7 = getelementptr inbounds %"class.icu_75::SortKeyByteSink", ptr %this1, i32 0, i32 3
  %9 = load i32, ptr %appended_7, align 4
  %inc = add nsw i32 %9, 1
  store i32 %inc, ptr %appended_7, align 4
  br label %if.end8

if.end8:                                          ; preds = %if.end, %if.then
  ret void
}

; Function Attrs: mustprogress nounwind uwtable
define internal noundef signext i8 @_ZL9U_FAILURE10UErrorCode(i32 noundef %code) #0 {
entry:
  %code.addr = alloca i32, align 4
  store i32 %code, ptr %code.addr, align 4
  %0 = load i32, ptr %code.addr, align 4
  %cmp = icmp sgt i32 %0, 0
  %conv = zext i1 %cmp to i8
  ret i8 %conv
}

; Function Attrs: mustprogress uwtable
define void @_ZNK6icu_7517RuleBasedCollator19writeIdenticalLevelEPKDsS2_RNS_15SortKeyByteSinkER10UErrorCode(ptr noundef nonnull align 8 dereferenceable(272) %this, ptr noundef %s, ptr noundef %limit, ptr noundef nonnull align 8 dereferenceable(28) %sink, ptr noundef nonnull align 4 dereferenceable(4) %errorCode) #1 align 2 personality ptr @__gxx_personality_v0 {
entry:
  %this.addr = alloca ptr, align 8
  %s.addr = alloca ptr, align 8
  %limit.addr = alloca ptr, align 8
  %sink.addr = alloca ptr, align 8
  %errorCode.addr = alloca ptr, align 8
  %nfdQCYesLimit = alloca ptr, align 8
  %prev = alloca i32, align 4
  %destLengthEstimate = alloca i32, align 4
  %nfd = alloca %"class.icu_75::UnicodeString", align 8
  %exn.slot = alloca ptr, align 8
  %ehselector.slot = alloca i32, align 4
  store ptr %this, ptr %this.addr, align 8
  store ptr %s, ptr %s.addr, align 8
  store ptr %limit, ptr %limit.addr, align 8
  store ptr %sink, ptr %sink.addr, align 8
  store ptr %errorCode, ptr %errorCode.addr, align 8
  %this1 = load ptr, ptr %this.addr, align 8
  %data = getelementptr inbounds %"class.icu_75::RuleBasedCollator", ptr %this1, i32 0, i32 1
  %0 = load ptr, ptr %data, align 8
  %nfcImpl = getelementptr inbounds %"struct.icu_75::CollationData", ptr %0, i32 0, i32 6
  %1 = load ptr, ptr %nfcImpl, align 8
  %2 = load ptr, ptr %s.addr, align 8
  %3 = load ptr, ptr %limit.addr, align 8
  %4 = load ptr, ptr %errorCode.addr, align 8
  %call = call noundef ptr @_ZNK6icu_7515Normalizer2Impl9decomposeEPKDsS2_PNS_16ReorderingBufferER10UErrorCode(ptr noundef nonnull align 8 dereferenceable(80) %1, ptr noundef %2, ptr noundef %3, ptr noundef null, ptr noundef nonnull align 4 dereferenceable(4) %4)
  store ptr %call, ptr %nfdQCYesLimit, align 8
  %5 = load ptr, ptr %errorCode.addr, align 8
  %6 = load i32, ptr %5, align 4
  %call2 = call noundef signext i8 @_ZL9U_FAILURE10UErrorCode(i32 noundef %6)
  %tobool = icmp ne i8 %call2, 0
  br i1 %tobool, label %if.then, label %if.end

if.then:                                          ; preds = %entry
  br label %return

if.end:                                           ; preds = %entry
  %7 = load ptr, ptr %sink.addr, align 8
  call void @_ZN6icu_7515SortKeyByteSink6AppendEj(ptr noundef nonnull align 8 dereferenceable(28) %7, i32 noundef 1)
  store i32 0, ptr %prev, align 4
  %8 = load ptr, ptr %nfdQCYesLimit, align 8
  %9 = load ptr, ptr %s.addr, align 8
  %cmp = icmp ne ptr %8, %9
  br i1 %cmp, label %if.then3, label %if.end5

if.then3:                                         ; preds = %if.end
  %10 = load i32, ptr %prev, align 4
  %11 = load ptr, ptr %s.addr, align 8
  %12 = load ptr, ptr %nfdQCYesLimit, align 8
  %13 = load ptr, ptr %s.addr, align 8
  %sub.ptr.lhs.cast = ptrtoint ptr %12 to i64
  %sub.ptr.rhs.cast = ptrtoint ptr %13 to i64
  %sub.ptr.sub = sub i64 %sub.ptr.lhs.cast, %sub.ptr.rhs.cast
  %sub.ptr.div = sdiv exact i64 %sub.ptr.sub, 2
  %conv = trunc i64 %sub.ptr.div to i32
  %14 = load ptr, ptr %sink.addr, align 8
  %call4 = call i32 @u_writeIdenticalLevelRun_75(i32 noundef %10, ptr noundef %11, i32 noundef %conv, ptr noundef nonnull align 8 dereferenceable(8) %14)
  store i32 %call4, ptr %prev, align 4
  br label %if.end5

if.end5:                                          ; preds = %if.then3, %if.end
  %15 = load ptr, ptr %limit.addr, align 8
  %cmp6 = icmp ne ptr %15, null
  br i1 %cmp6, label %if.then7, label %if.else

if.then7:                                         ; preds = %if.end5
  %16 = load ptr, ptr %nfdQCYesLimit, align 8
  %17 = load ptr, ptr %limit.addr, align 8
  %cmp8 = icmp eq ptr %16, %17
  br i1 %cmp8, label %if.then9, label %if.end10

if.then9:                                         ; preds = %if.then7
  br label %return

if.end10:                                         ; preds = %if.then7
  %18 = load ptr, ptr %limit.addr, align 8
  %19 = load ptr, ptr %nfdQCYesLimit, align 8
  %sub.ptr.lhs.cast11 = ptrtoint ptr %18 to i64
  %sub.ptr.rhs.cast12 = ptrtoint ptr %19 to i64
  %sub.ptr.sub13 = sub i64 %sub.ptr.lhs.cast11, %sub.ptr.rhs.cast12
  %sub.ptr.div14 = sdiv exact i64 %sub.ptr.sub13, 2
  %conv15 = trunc i64 %sub.ptr.div14 to i32
  store i32 %conv15, ptr %destLengthEstimate, align 4
  br label %if.end20

if.else:                                          ; preds = %if.end5
  %20 = load ptr, ptr %nfdQCYesLimit, align 8
  %21 = load i16, ptr %20, align 2
  %conv16 = zext i16 %21 to i32
  %cmp17 = icmp eq i32 %conv16, 0
  br i1 %cmp17, label %if.then18, label %if.end19

if.then18:                                        ; preds = %if.else
  br label %return

if.end19:                                         ; preds = %if.else
  store i32 -1, ptr %destLengthEstimate, align 4
  br label %if.end20

if.end20:                                         ; preds = %if.end19, %if.end10
  call void @_ZN6icu_7513UnicodeStringC2Ev(ptr noundef nonnull align 8 dereferenceable(64) %nfd)
  %data21 = getelementptr inbounds %"class.icu_75::RuleBasedCollator", ptr %this1, i32 0, i32 1
  %22 = load ptr, ptr %data21, align 8
  %nfcImpl22 = getelementptr inbounds %"struct.icu_75::CollationData", ptr %22, i32 0, i32 6
  %23 = load ptr, ptr %nfcImpl22, align 8
  %24 = load ptr, ptr %nfdQCYesLimit, align 8
  %25 = load ptr, ptr %limit.addr, align 8
  %26 = load i32, ptr %destLengthEstimate, align 4
  %27 = load ptr, ptr %errorCode.addr, align 8
  invoke void @_ZNK6icu_7515Normalizer2Impl9decomposeEPKDsS2_RNS_13UnicodeStringEiR10UErrorCode(ptr noundef nonnull align 8 dereferenceable(80) %23, ptr noundef %24, ptr noundef %25, ptr noundef nonnull align 8 dereferenceable(64) %nfd, i32 noundef %26, ptr noundef nonnull align 4 dereferenceable(4) %27)
          to label %invoke.cont unwind label %lpad

invoke.cont:                                      ; preds = %if.end20
  %28 = load i32, ptr %prev, align 4
  %call24 = invoke noundef ptr @_ZNK6icu_7513UnicodeString9getBufferEv(ptr noundef nonnull align 8 dereferenceable(64) %nfd)
          to label %invoke.cont23 unwind label %lpad

invoke.cont23:                                    ; preds = %invoke.cont
  %call26 = invoke noundef i32 @_ZNK6icu_7513UnicodeString6lengthEv(ptr noundef nonnull align 8 dereferenceable(64) %nfd)
          to label %invoke.cont25 unwind label %lpad

invoke.cont25:                                    ; preds = %invoke.cont23
  %29 = load ptr, ptr %sink.addr, align 8
  %call28 = invoke i32 @u_writeIdenticalLevelRun_75(i32 noundef %28, ptr noundef %call24, i32 noundef %call26, ptr noundef nonnull align 8 dereferenceable(8) %29)
          to label %invoke.cont27 unwind label %lpad

invoke.cont27:                                    ; preds = %invoke.cont25
  call void @_ZN6icu_7513UnicodeStringD1Ev(ptr noundef nonnull align 8 dereferenceable(64) %nfd) #10
  br label %return

return:                                           ; preds = %invoke.cont27, %if.then18, %if.then9, %if.then
  ret void

lpad:                                             ; preds = %invoke.cont25, %invoke.cont23, %invoke.cont, %if.end20
  %30 = landingpad { ptr, i32 }
          cleanup
  %31 = extractvalue { ptr, i32 } %30, 0
  store ptr %31, ptr %exn.slot, align 8
  %32 = extractvalue { ptr, i32 } %30, 1
  store i32 %32, ptr %ehselector.slot, align 4
  call void @_ZN6icu_7513UnicodeStringD1Ev(ptr noundef nonnull align 8 dereferenceable(64) %nfd) #10
  br label %eh.resume

eh.resume:                                        ; preds = %lpad
  %exn = load ptr, ptr %exn.slot, align 8
  %sel = load i32, ptr %ehselector.slot, align 4
  %lpad.val = insertvalue { ptr, i32 } poison, ptr %exn, 0
  %lpad.val29 = insertvalue { ptr, i32 } %lpad.val, i32 %sel, 1
  resume { ptr, i32 } %lpad.val29
}