; Function Attrs: mustprogress uwtable
define void @_ZNK6icu_7517RuleBasedCollator19writeIdenticalLevelEPKDsS2_RNS_15SortKeyByteSinkER10UErrorCode(ptr nocapture noundef nonnull readonly align 8 dereferenceable(272) %this, ptr noundef %s, ptr noundef %limit, ptr noundef nonnull align 8 dereferenceable(28) %sink, ptr noundef nonnull align 4 dereferenceable(4) %errorCode) local_unnamed_addr #1 align 2 personality ptr @__gxx_personality_v0 {
entry:
  %nfd = alloca %"class.icu_75::UnicodeString", align 8
  %data = getelementptr inbounds i8, ptr %this, i64 8
  %0 = load ptr, ptr %data, align 8
  %nfcImpl = getelementptr inbounds i8, ptr %0, i64 48
  %1 = load ptr, ptr %nfcImpl, align 8
  %call = tail call noundef ptr @_ZNK6icu_7515Normalizer2Impl9decomposeEPKDsS2_PNS_16ReorderingBufferER10UErrorCode(ptr noundef nonnull align 8 dereferenceable(80) %1, ptr noundef %s, ptr noundef %limit, ptr noundef null, ptr noundef nonnull align 4 dereferenceable(4) %errorCode)
  %2 = load i32, ptr %errorCode, align 4
  %cmp.i = icmp slt i32 %2, 1
  br i1 %cmp.i, label %if.end, label %return

if.end:                                           ; preds = %entry
  %ignore_.i = getelementptr inbounds i8, ptr %sink, i64 24
  %3 = load i32, ptr %ignore_.i, align 8
  %cmp.i18 = icmp sgt i32 %3, 0
  br i1 %cmp.i18, label %if.then.i, label %if.else.i

if.then.i:                                        ; preds = %if.end
  %dec.i = add nsw i32 %3, -1
  store i32 %dec.i, ptr %ignore_.i, align 8
  br label %_ZN6icu_7515SortKeyByteSink6AppendEj.exit

if.else.i:                                        ; preds = %if.end
  %appended_.i = getelementptr inbounds i8, ptr %sink, i64 20
  %4 = load i32, ptr %appended_.i, align 4
  %capacity_.i = getelementptr inbounds i8, ptr %sink, i64 16
  %5 = load i32, ptr %capacity_.i, align 8
  %cmp3.i = icmp slt i32 %4, %5
  br i1 %cmp3.i, label %if.then5.i, label %lor.lhs.false.i

lor.lhs.false.i:                                  ; preds = %if.else.i
  %vtable.i = load ptr, ptr %sink, align 8
  %vfn.i = getelementptr inbounds i8, ptr %vtable.i, i64 48
  %6 = load ptr, ptr %vfn.i, align 8
  %call.i = tail call noundef signext i8 %6(ptr noundef nonnull align 8 dereferenceable(28) %sink, i32 noundef 1, i32 noundef %4)
  %tobool.not.i = icmp eq i8 %call.i, 0
  br i1 %tobool.not.i, label %if.end.i, label %lor.lhs.false.if.then5_crit_edge.i

lor.lhs.false.if.then5_crit_edge.i:               ; preds = %lor.lhs.false.i
  %.pre.i = load i32, ptr %appended_.i, align 4
  br label %if.then5.i

if.then5.i:                                       ; preds = %lor.lhs.false.if.then5_crit_edge.i, %if.else.i
  %7 = phi i32 [ %.pre.i, %lor.lhs.false.if.then5_crit_edge.i ], [ %4, %if.else.i ]
  %buffer_.i = getelementptr inbounds i8, ptr %sink, i64 8
  %8 = load ptr, ptr %buffer_.i, align 8
  %idxprom.i = sext i32 %7 to i64
  %arrayidx.i = getelementptr inbounds i8, ptr %8, i64 %idxprom.i
  store i8 1, ptr %arrayidx.i, align 1
  br label %if.end.i

if.end.i:                                         ; preds = %if.then5.i, %lor.lhs.false.i
  %9 = load i32, ptr %appended_.i, align 4
  %inc.i = add nsw i32 %9, 1
  store i32 %inc.i, ptr %appended_.i, align 4
  br label %_ZN6icu_7515SortKeyByteSink6AppendEj.exit

_ZN6icu_7515SortKeyByteSink6AppendEj.exit:        ; preds = %if.then.i, %if.end.i
  %cmp.not = icmp eq ptr %call, %s
  br i1 %cmp.not, label %if.end5, label %if.then3

if.then3:                                         ; preds = %_ZN6icu_7515SortKeyByteSink6AppendEj.exit
  %sub.ptr.lhs.cast = ptrtoint ptr %call to i64
  %sub.ptr.rhs.cast = ptrtoint ptr %s to i64
  %sub.ptr.sub = sub i64 %sub.ptr.lhs.cast, %sub.ptr.rhs.cast
  %sub.ptr.div = lshr exact i64 %sub.ptr.sub, 1
  %conv = trunc i64 %sub.ptr.div to i32
  %call4 = tail call i32 @u_writeIdenticalLevelRun_75(i32 noundef 0, ptr noundef %s, i32 noundef %conv, ptr noundef nonnull align 8 dereferenceable(8) %sink)
  br label %if.end5

if.end5:                                          ; preds = %if.then3, %_ZN6icu_7515SortKeyByteSink6AppendEj.exit
  %prev.0 = phi i32 [ %call4, %if.then3 ], [ 0, %_ZN6icu_7515SortKeyByteSink6AppendEj.exit ]
  %cmp6.not = icmp eq ptr %limit, null
  br i1 %cmp6.not, label %if.else, label %if.then7

if.then7:                                         ; preds = %if.end5
  %cmp8 = icmp eq ptr %call, %limit
  br i1 %cmp8, label %return, label %if.end10

if.end10:                                         ; preds = %if.then7
  %sub.ptr.lhs.cast11 = ptrtoint ptr %limit to i64
  %sub.ptr.rhs.cast12 = ptrtoint ptr %call to i64
  %sub.ptr.sub13 = sub i64 %sub.ptr.lhs.cast11, %sub.ptr.rhs.cast12
  %sub.ptr.div14 = lshr exact i64 %sub.ptr.sub13, 1
  %conv15 = trunc i64 %sub.ptr.div14 to i32
  br label %if.end20

if.else:                                          ; preds = %if.end5
  %10 = load i16, ptr %call, align 2
  %cmp17 = icmp eq i16 %10, 0
  br i1 %cmp17, label %return, label %if.end20

if.end20:                                         ; preds = %if.else, %if.end10
  %destLengthEstimate.0 = phi i32 [ %conv15, %if.end10 ], [ -1, %if.else ]
  store ptr getelementptr inbounds ({ [13 x ptr] }, ptr @_ZTVN6icu_7513UnicodeStringE, i64 0, i32 0, i64 2), ptr %nfd, align 8
  %fUnion2.i = getelementptr inbounds i8, ptr %nfd, i64 8
  store i16 2, ptr %fUnion2.i, align 8
  %11 = load ptr, ptr %data, align 8
  %nfcImpl22 = getelementptr inbounds i8, ptr %11, i64 48
  %12 = load ptr, ptr %nfcImpl22, align 8
  invoke void @_ZNK6icu_7515Normalizer2Impl9decomposeEPKDsS2_RNS_13UnicodeStringEiR10UErrorCode(ptr noundef nonnull align 8 dereferenceable(80) %12, ptr noundef %call, ptr noundef %limit, ptr noundef nonnull align 8 dereferenceable(64) %nfd, i32 noundef %destLengthEstimate.0, ptr noundef nonnull align 4 dereferenceable(4) %errorCode)
          to label %invoke.cont unwind label %lpad

invoke.cont:                                      ; preds = %if.end20
  %13 = load i16, ptr %fUnion2.i, align 8
  %conv1.i = zext i16 %13 to i32
  %and.i = and i32 %conv1.i, 17
  %tobool.not.i19 = icmp eq i32 %and.i, 0
  br i1 %tobool.not.i19, label %if.else.i20, label %invoke.cont25

if.else.i20:                                      ; preds = %invoke.cont
  %and5.i = and i32 %conv1.i, 2
  %tobool6.not.i = icmp eq i32 %and5.i, 0
  br i1 %tobool6.not.i, label %if.else9.i, label %if.then7.i

if.then7.i:                                       ; preds = %if.else.i20
  %fBuffer.i = getelementptr inbounds i8, ptr %nfd, i64 10
  br label %invoke.cont25

if.else9.i:                                       ; preds = %if.else.i20
  %fArray.i = getelementptr inbounds i8, ptr %nfd, i64 24
  %14 = load ptr, ptr %fArray.i, align 8
  br label %invoke.cont25

invoke.cont25:                                    ; preds = %if.else9.i, %if.then7.i, %invoke.cont
  %retval.0.i = phi ptr [ %fBuffer.i, %if.then7.i ], [ %14, %if.else9.i ], [ null, %invoke.cont ]
  %cmp.i.i = icmp slt i16 %13, 0
  %15 = ashr i16 %13, 5
  %shr.i.i = sext i16 %15 to i32
  %fLength.i = getelementptr inbounds i8, ptr %nfd, i64 12
  %16 = load i32, ptr %fLength.i, align 4
  %cond.i = select i1 %cmp.i.i, i32 %16, i32 %shr.i.i
  %call28 = invoke i32 @u_writeIdenticalLevelRun_75(i32 noundef %prev.0, ptr noundef %retval.0.i, i32 noundef %cond.i, ptr noundef nonnull align 8 dereferenceable(8) %sink)
          to label %invoke.cont27 unwind label %lpad

invoke.cont27:                                    ; preds = %invoke.cont25
  call void @_ZN6icu_7513UnicodeStringD1Ev(ptr noundef nonnull align 8 dereferenceable(64) %nfd) #17
  br label %return

return:                                           ; preds = %if.else, %if.then7, %entry, %invoke.cont27
  ret void

lpad:                                             ; preds = %invoke.cont25, %if.end20
  %17 = landingpad { ptr, i32 }
          cleanup
  call void @_ZN6icu_7513UnicodeStringD1Ev(ptr noundef nonnull align 8 dereferenceable(64) %nfd) #17
  resume { ptr, i32 } %17
}